target datalayout = "e-m:e-p270:32:32-p271:32:32-p272:64:64-i64:64-i128:128-f80:128-n8:16:32:64-S128"
target triple = "x86_64-pc-linux-gnu"

%"class.doctest::String" = type { %union.anon.7 }
%union.anon.7 = type { %"struct.doctest::String::view", [8 x i8] }
%"struct.doctest::String::view" = type { ptr, i32, i32 }
%"struct.doctest::TestRunStats" = type { i32, i32, i32, i32, i32, i32 }
%"struct.doctest::detail::ContextState" = type <{ %"struct.doctest::ContextOptions.base", i8, %"struct.doctest::TestRunStats", %"struct.doctest::CurrentTestCaseStats", %"class.doctest::detail::MultiLaneAtomic", %"class.doctest::detail::MultiLaneAtomic", %"class.std::vector.9", %"class.std::vector.14", ptr, %"struct.doctest::detail::Timer", %"class.std::vector.19", i8, [7 x i8], %"class.std::vector.24", %"class.std::vector.24", %"class.std::unordered_set", i64, %"struct.std::atomic.34", [7 x i8] }>
%"struct.doctest::ContextOptions.base" = type <{ ptr, %"class.doctest::String", ptr, %"class.doctest::String", %"class.doctest::String", i32, i32, i32, i32, i32, i8, i8, i8, i8, i8, i8, i8, i8, i8, i8, i8, i8, i8, i8, i8, i8, i8, i8, i8, i8, i8, i8, i8, i8, i8, i8, i8 }>
%"struct.doctest::CurrentTestCaseStats" = type { i32, i32, double, i32, i8 }
%"class.doctest::detail::MultiLaneAtomic" = type { [32 x %"struct.doctest::detail::MultiLaneAtomic<int>::CacheLineAlignedAtomic"] }
%"struct.doctest::detail::MultiLaneAtomic<int>::CacheLineAlignedAtomic" = type { %"struct.std::atomic", [60 x i8] }
%"struct.std::atomic" = type { %"struct.std::__atomic_base" }
%"struct.std::__atomic_base" = type { i32 }
%"class.std::vector.9" = type { %"struct.std::_Vector_base.10" }
%"struct.std::_Vector_base.10" = type { %"struct.std::_Vector_base<std::vector<doctest::String>, std::allocator<std::vector<doctest::String>>>::_Vector_impl" }
%"struct.std::_Vector_base<std::vector<doctest::String>, std::allocator<std::vector<doctest::String>>>::_Vector_impl" = type { %"struct.std::_Vector_base<std::vector<doctest::String>, std::allocator<std::vector<doctest::String>>>::_Vector_impl_data" }
%"struct.std::_Vector_base<std::vector<doctest::String>, std::allocator<std::vector<doctest::String>>>::_Vector_impl_data" = type { ptr, ptr, ptr }
%"class.std::vector.14" = type { %"struct.std::_Vector_base.15" }
%"struct.std::_Vector_base.15" = type { %"struct.std::_Vector_base<doctest::IReporter *, std::allocator<doctest::IReporter *>>::_Vector_impl" }
%"struct.std::_Vector_base<doctest::IReporter *, std::allocator<doctest::IReporter *>>::_Vector_impl" = type { %"struct.std::_Vector_base<doctest::IReporter *, std::allocator<doctest::IReporter *>>::_Vector_impl_data" }
%"struct.std::_Vector_base<doctest::IReporter *, std::allocator<doctest::IReporter *>>::_Vector_impl_data" = type { ptr, ptr, ptr }
%"struct.doctest::detail::Timer" = type { i64 }
%"class.std::vector.19" = type { %"struct.std::_Vector_base.20" }
%"struct.std::_Vector_base.20" = type { %"struct.std::_Vector_base<doctest::String, std::allocator<doctest::String>>::_Vector_impl" }
%"struct.std::_Vector_base<doctest::String, std::allocator<doctest::String>>::_Vector_impl" = type { %"struct.std::_Vector_base<doctest::String, std::allocator<doctest::String>>::_Vector_impl_data" }
%"struct.std::_Vector_base<doctest::String, std::allocator<doctest::String>>::_Vector_impl_data" = type { ptr, ptr, ptr }
%"class.std::vector.24" = type { %"struct.std::_Vector_base.25" }
%"struct.std::_Vector_base.25" = type { %"struct.std::_Vector_base<doctest::SubcaseSignature, std::allocator<doctest::SubcaseSignature>>::_Vector_impl" }
%"struct.std::_Vector_base<doctest::SubcaseSignature, std::allocator<doctest::SubcaseSignature>>::_Vector_impl" = type { %"struct.std::_Vector_base<doctest::SubcaseSignature, std::allocator<doctest::SubcaseSignature>>::_Vector_impl_data" }
%"struct.std::_Vector_base<doctest::SubcaseSignature, std::allocator<doctest::SubcaseSignature>>::_Vector_impl_data" = type { ptr, ptr, ptr }
%"class.std::unordered_set" = type { %"class.std::_Hashtable" }
%"class.std::_Hashtable" = type { ptr, i64, %"struct.std::__detail::_Hash_node_base", i64, %"struct.std::__detail::_Prime_rehash_policy", ptr }
%"struct.std::__detail::_Hash_node_base" = type { ptr }
%"struct.std::__detail::_Prime_rehash_policy" = type { float, i64 }
%"struct.std::atomic.34" = type { %"struct.std::__atomic_base.35" }
%"struct.std::__atomic_base.35" = type { i8 }

@_ZN7doctest6detail4g_csE = dso_local global ptr null, align 8

; Function Attrs: mustprogress uwtable
define dso_local void @_ZN7doctest6detail31failed_out_of_a_testing_contextERKNS_10AssertDataE(ptr noundef nonnull align 8 dereferenceable(144) %0) #8 {
  %2 = alloca ptr, align 8
  store ptr %0, ptr %2, align 8, !tbaa !268
  %3 = load ptr, ptr @_ZN7doctest6detail4g_csE, align 8, !tbaa !84
  %4 = getelementptr inbounds nuw %"struct.doctest::detail::ContextState", ptr %3, i32 0, i32 8
  %5 = load ptr, ptr %4, align 8, !tbaa !291
  %6 = icmp ne ptr %5, null
  br i1 %6, label %7, label %12

7:                                                ; preds = %1
  %8 = load ptr, ptr @_ZN7doctest6detail4g_csE, align 8, !tbaa !84
  %9 = getelementptr inbounds nuw %"struct.doctest::detail::ContextState", ptr %8, i32 0, i32 8
  %10 = load ptr, ptr %9, align 8, !tbaa !291
  %11 = load ptr, ptr %2, align 8, !tbaa !268
  call void %10(ptr noundef nonnull align 8 dereferenceable(144) %11)
  br label %13

12:                                               ; preds = %1
  call void @abort() #33
  unreachable

13:                                               ; preds = %7
  ret void
}