; Function Attrs: mustprogress uwtable
define dso_local void @_ZN7doctest6detail31failed_out_of_a_testing_contextERKNS_10AssertDataE(ptr noundef nonnull align 8 dereferenceable(144) %0) local_unnamed_addr #8 {
  %2 = load ptr, ptr @_ZN7doctest6detail4g_csE, align 8, !tbaa !73
  %3 = getelementptr inbounds nuw i8, ptr %2, i64 4328
  %4 = load ptr, ptr %3, align 8, !tbaa !307
  %.not = icmp eq ptr %4, null
  br i1 %.not, label %6, label %5

5:                                                ; preds = %1
  tail call void %4(ptr noundef nonnull align 8 dereferenceable(144) %0)
  ret void

6:                                                ; preds = %1
  tail call void @abort() #53
  unreachable
}